; Function Attrs: nounwind uwtable
define ptr @l___private_Lean_Elab_Inductive_0__Lean_Elab_Command_getArrowBinderNames_go(ptr noundef %0, ptr noundef %1) local_unnamed_addr #0 {
  br label %.outer

.outer:                                           ; preds = %lean_dec.exit20, %2
  %.016.ph = phi ptr [ %39, %lean_dec.exit20 ], [ %1, %2 ]
  %.0.ph = phi ptr [ %23, %lean_dec.exit20 ], [ %0, %2 ]
  br label %lean_dec.exit19

lean_dec.exit19:                                  ; preds = %lean_dec.exit19.backedge, %.outer
  %.0 = phi ptr [ %.0.ph, %.outer ], [ %42, %lean_dec.exit19.backedge ]
  %3 = ptrtoint ptr %.0 to i64
  %4 = and i64 %3, 1
  %.not.i25 = icmp eq i64 %4, 0
  br i1 %.not.i25, label %8, label %5

5:                                                ; preds = %lean_dec.exit19
  %6 = lshr i64 %3, 1
  %7 = trunc i64 %6 to i32
  br label %lean_obj_tag.exit

8:                                                ; preds = %lean_dec.exit19
  %9 = getelementptr i8, ptr %.0, i64 4
  %.val.i = load i32, ptr %9, align 4
  %10 = lshr i32 %.val.i, 24
  br label %lean_obj_tag.exit

lean_obj_tag.exit:                                ; preds = %5, %8
  %.0.i = phi i32 [ %7, %5 ], [ %10, %8 ]
  switch i32 %.0.i, label %58 [
    i32 7, label %11
    i32 10, label %40
  ]

11:                                               ; preds = %lean_obj_tag.exit
  %12 = getelementptr inbounds nuw i8, ptr %.0, i64 8
  %13 = load ptr, ptr %12, align 8, !tbaa !10
  %14 = ptrtoint ptr %13 to i64
  %15 = and i64 %14, 1
  %.not35 = icmp eq i64 %15, 0
  br i1 %.not35, label %16, label %lean_inc.exit18

16:                                               ; preds = %11
  %.val.i26 = load i32, ptr %13, align 4, !tbaa !4
  %17 = icmp sgt i32 %.val.i26, 0
  br i1 %17, label %18, label %20, !prof !9

18:                                               ; preds = %16
  %19 = add nuw i32 %.val.i26, 1
  store i32 %19, ptr %13, align 4, !tbaa !4
  br label %lean_inc.exit18

20:                                               ; preds = %16
  %.not.i27 = icmp eq i32 %.val.i26, 0
  br i1 %.not.i27, label %lean_inc.exit18, label %21

21:                                               ; preds = %20
  tail call void @lean_inc_ref_cold(ptr noundef nonnull %13) #6
  br label %lean_inc.exit18

lean_inc.exit18:                                  ; preds = %21, %20, %18, %11
  %22 = getelementptr inbounds nuw i8, ptr %.0, i64 24
  %23 = load ptr, ptr %22, align 8, !tbaa !10
  %24 = ptrtoint ptr %23 to i64
  %25 = and i64 %24, 1
  %.not36 = icmp eq i64 %25, 0
  br i1 %.not36, label %26, label %lean_inc.exit17

26:                                               ; preds = %lean_inc.exit18
  %.val.i28 = load i32, ptr %23, align 4, !tbaa !4
  %27 = icmp sgt i32 %.val.i28, 0
  br i1 %27, label %28, label %30, !prof !9

28:                                               ; preds = %26
  %29 = add nuw i32 %.val.i28, 1
  store i32 %29, ptr %23, align 4, !tbaa !4
  br label %lean_inc.exit17

30:                                               ; preds = %26
  %.not.i29 = icmp eq i32 %.val.i28, 0
  br i1 %.not.i29, label %lean_inc.exit17, label %31

31:                                               ; preds = %30
  tail call void @lean_inc_ref_cold(ptr noundef nonnull %23) #6
  br label %lean_inc.exit17

lean_inc.exit17:                                  ; preds = %31, %30, %28, %lean_inc.exit18
  br i1 %.not.i25, label %32, label %lean_dec.exit20

32:                                               ; preds = %lean_inc.exit17
  %33 = load i32, ptr %.0, align 4, !tbaa !4
  %34 = icmp sgt i32 %33, 1
  br i1 %34, label %35, label %37, !prof !9

35:                                               ; preds = %32
  %36 = add nsw i32 %33, -1
  store i32 %36, ptr %.0, align 4, !tbaa !4
  br label %lean_dec.exit20

37:                                               ; preds = %32
  %.not.i = icmp eq i32 %33, 0
  br i1 %.not.i, label %lean_dec.exit20, label %38

38:                                               ; preds = %37
  tail call void @lean_dec_ref_cold(ptr noundef nonnull %.0) #6
  br label %lean_dec.exit20

lean_dec.exit20:                                  ; preds = %38, %37, %35, %lean_inc.exit17
  %39 = tail call ptr @lean_array_push(ptr noundef %.016.ph, ptr noundef %13) #6
  br label %.outer

40:                                               ; preds = %lean_obj_tag.exit
  %41 = getelementptr inbounds nuw i8, ptr %.0, i64 16
  %42 = load ptr, ptr %41, align 8, !tbaa !10
  %43 = ptrtoint ptr %42 to i64
  %44 = and i64 %43, 1
  %.not = icmp eq i64 %44, 0
  br i1 %.not, label %45, label %lean_inc.exit

45:                                               ; preds = %40
  %.val.i31 = load i32, ptr %42, align 4, !tbaa !4
  %46 = icmp sgt i32 %.val.i31, 0
  br i1 %46, label %47, label %49, !prof !9

47:                                               ; preds = %45
  %48 = add nuw i32 %.val.i31, 1
  store i32 %48, ptr %42, align 4, !tbaa !4
  br label %lean_inc.exit

49:                                               ; preds = %45
  %.not.i32 = icmp eq i32 %.val.i31, 0
  br i1 %.not.i32, label %lean_inc.exit, label %50

50:                                               ; preds = %49
  tail call void @lean_inc_ref_cold(ptr noundef nonnull %42) #6
  br label %lean_inc.exit

lean_inc.exit:                                    ; preds = %50, %49, %47, %40
  br i1 %.not.i25, label %51, label %lean_dec.exit19.backedge

51:                                               ; preds = %lean_inc.exit
  %52 = load i32, ptr %.0, align 4, !tbaa !4
  %53 = icmp sgt i32 %52, 1
  br i1 %53, label %54, label %56, !prof !9

54:                                               ; preds = %51
  %55 = add nsw i32 %52, -1
  store i32 %55, ptr %.0, align 4, !tbaa !4
  br label %lean_dec.exit19.backedge

56:                                               ; preds = %51
  %.not.i21 = icmp eq i32 %52, 0
  br i1 %.not.i21, label %lean_dec.exit19.backedge, label %57

57:                                               ; preds = %56
  tail call void @lean_dec_ref_cold(ptr noundef nonnull %.0) #6
  br label %lean_dec.exit19.backedge

lean_dec.exit19.backedge:                         ; preds = %57, %56, %54, %lean_inc.exit
  br label %lean_dec.exit19

58:                                               ; preds = %lean_obj_tag.exit
  br i1 %.not.i25, label %59, label %lean_dec.exit

59:                                               ; preds = %58
  %60 = load i32, ptr %.0, align 4, !tbaa !4
  %61 = icmp sgt i32 %60, 1
  br i1 %61, label %62, label %64, !prof !9

62:                                               ; preds = %59
  %63 = add nsw i32 %60, -1
  store i32 %63, ptr %.0, align 4, !tbaa !4
  br label %lean_dec.exit

64:                                               ; preds = %59
  %.not.i23 = icmp eq i32 %60, 0
  br i1 %.not.i23, label %lean_dec.exit, label %65

65:                                               ; preds = %64
  tail call void @lean_dec_ref_cold(ptr noundef nonnull %.0) #6
  br label %lean_dec.exit

lean_dec.exit:                                    ; preds = %65, %64, %62, %58
  ret ptr %.016.ph
}